; Function Attrs: mustprogress uwtable
define hidden void @_ZN12opencv_caffe16DropoutParameter5ClearEv(ptr noundef nonnull align 8 dereferenceable(32) %0) unnamed_addr #3 align 2 {
  %2 = getelementptr inbounds nuw i8, ptr %0, i64 16
  %3 = load i32, ptr %2, align 8, !tbaa !71
  %4 = and i32 %3, 3
  %.not = icmp eq i32 %4, 0
  br i1 %.not, label %8, label %5

5:                                                ; preds = %1
  %6 = getelementptr inbounds nuw i8, ptr %0, i64 24
  store float 5.000000e-01, ptr %6, align 8, !tbaa !519
  %7 = getelementptr inbounds nuw i8, ptr %0, i64 28
  store i8 1, ptr %7, align 4, !tbaa !521
  br label %8

8:                                                ; preds = %5, %1
  store i32 0, ptr %2, align 8
  %9 = getelementptr inbounds nuw i8, ptr %0, i64 8
  %10 = load i64, ptr %9, align 8, !tbaa !8
  %11 = and i64 %10, 1
  %.not1 = icmp eq i64 %11, 0
  br i1 %.not1, label %_ZN6google8protobuf8internal16InternalMetadata5ClearINS0_15UnknownFieldSetEEEvv.exit, label %12

12:                                               ; preds = %8
  tail call void @_ZN6google8protobuf8internal16InternalMetadata7DoClearINS0_15UnknownFieldSetEEEvv(ptr noundef nonnull align 8 dereferenceable(8) %9)
  br label %_ZN6google8protobuf8internal16InternalMetadata5ClearINS0_15UnknownFieldSetEEEvv.exit

_ZN6google8protobuf8internal16InternalMetadata5ClearINS0_15UnknownFieldSetEEEvv.exit: ; preds = %8, %12
  ret void
}